
allocation_cpp.icc:     file format elf64-x86-64


Disassembly of section .init:

0000000000400528 <_init>:
  400528:	48 83 ec 08          	sub    $0x8,%rsp
  40052c:	48 8b 05 a5 05 20 00 	mov    0x2005a5(%rip),%rax        # 600ad8 <_DYNAMIC+0x210>
  400533:	48 85 c0             	test   %rax,%rax
  400536:	74 05                	je     40053d <_init+0x15>
  400538:	e8 63 00 00 00       	callq  4005a0 <__gxx_personality_v0@plt+0x10>
  40053d:	48 83 c4 08          	add    $0x8,%rsp
  400541:	c3                   	retq   

Disassembly of section .plt:

0000000000400550 <_ZdaPvm@plt-0x10>:
  400550:	ff 35 92 05 20 00    	pushq  0x200592(%rip)        # 600ae8 <_GLOBAL_OFFSET_TABLE_+0x8>
  400556:	ff 25 94 05 20 00    	jmpq   *0x200594(%rip)        # 600af0 <_GLOBAL_OFFSET_TABLE_+0x10>
  40055c:	0f 1f 40 00          	nopl   0x0(%rax)

0000000000400560 <_ZdaPvm@plt>:
  400560:	ff 25 92 05 20 00    	jmpq   *0x200592(%rip)        # 600af8 <_GLOBAL_OFFSET_TABLE_+0x18>
  400566:	68 00 00 00 00       	pushq  $0x0
  40056b:	e9 e0 ff ff ff       	jmpq   400550 <_init+0x28>

0000000000400570 <_Znam@plt>:
  400570:	ff 25 8a 05 20 00    	jmpq   *0x20058a(%rip)        # 600b00 <_GLOBAL_OFFSET_TABLE_+0x20>
  400576:	68 01 00 00 00       	pushq  $0x1
  40057b:	e9 d0 ff ff ff       	jmpq   400550 <_init+0x28>

0000000000400580 <__libc_start_main@plt>:
  400580:	ff 25 82 05 20 00    	jmpq   *0x200582(%rip)        # 600b08 <_GLOBAL_OFFSET_TABLE_+0x28>
  400586:	68 02 00 00 00       	pushq  $0x2
  40058b:	e9 c0 ff ff ff       	jmpq   400550 <_init+0x28>

0000000000400590 <__gxx_personality_v0@plt>:
  400590:	ff 25 7a 05 20 00    	jmpq   *0x20057a(%rip)        # 600b10 <_GLOBAL_OFFSET_TABLE_+0x30>
  400596:	68 03 00 00 00       	pushq  $0x3
  40059b:	e9 b0 ff ff ff       	jmpq   400550 <_init+0x28>

Disassembly of section .plt.got:

00000000004005a0 <.plt.got>:
  4005a0:	ff 25 32 05 20 00    	jmpq   *0x200532(%rip)        # 600ad8 <_DYNAMIC+0x210>
  4005a6:	66 90                	xchg   %ax,%ax

Disassembly of section .text:

00000000004005b0 <_start>:
  4005b0:	31 ed                	xor    %ebp,%ebp
  4005b2:	49 89 d1             	mov    %rdx,%r9
  4005b5:	5e                   	pop    %rsi
  4005b6:	48 89 e2             	mov    %rsp,%rdx
  4005b9:	48 83 e4 f0          	and    $0xfffffffffffffff0,%rsp
  4005bd:	50                   	push   %rax
  4005be:	54                   	push   %rsp
  4005bf:	49 c7 c0 50 07 40 00 	mov    $0x400750,%r8
  4005c6:	48 c7 c1 e0 06 40 00 	mov    $0x4006e0,%rcx
  4005cd:	48 c7 c7 84 06 40 00 	mov    $0x400684,%rdi
  4005d4:	e8 a7 ff ff ff       	callq  400580 <__libc_start_main@plt>
  4005d9:	f4                   	hlt    
  4005da:	66 0f 1f 44 00 00    	nopw   0x0(%rax,%rax,1)

00000000004005e0 <deregister_tm_clones>:
  4005e0:	b8 28 0b 60 00       	mov    $0x600b28,%eax
  4005e5:	48 3d 28 0b 60 00    	cmp    $0x600b28,%rax
  4005eb:	74 13                	je     400600 <deregister_tm_clones+0x20>
  4005ed:	b8 00 00 00 00       	mov    $0x0,%eax
  4005f2:	48 85 c0             	test   %rax,%rax
  4005f5:	74 09                	je     400600 <deregister_tm_clones+0x20>
  4005f7:	bf 28 0b 60 00       	mov    $0x600b28,%edi
  4005fc:	ff e0                	jmpq   *%rax
  4005fe:	66 90                	xchg   %ax,%ax
  400600:	c3                   	retq   
  400601:	0f 1f 44 00 00       	nopl   0x0(%rax,%rax,1)
  400606:	66 2e 0f 1f 84 00 00 	nopw   %cs:0x0(%rax,%rax,1)
  40060d:	00 00 00 

0000000000400610 <register_tm_clones>:
  400610:	be 28 0b 60 00       	mov    $0x600b28,%esi
  400615:	48 81 ee 28 0b 60 00 	sub    $0x600b28,%rsi
  40061c:	48 c1 fe 03          	sar    $0x3,%rsi
  400620:	48 89 f0             	mov    %rsi,%rax
  400623:	48 c1 e8 3f          	shr    $0x3f,%rax
  400627:	48 01 c6             	add    %rax,%rsi
  40062a:	48 d1 fe             	sar    %rsi
  40062d:	74 11                	je     400640 <register_tm_clones+0x30>
  40062f:	b8 00 00 00 00       	mov    $0x0,%eax
  400634:	48 85 c0             	test   %rax,%rax
  400637:	74 07                	je     400640 <register_tm_clones+0x30>
  400639:	bf 28 0b 60 00       	mov    $0x600b28,%edi
  40063e:	ff e0                	jmpq   *%rax
  400640:	c3                   	retq   
  400641:	0f 1f 44 00 00       	nopl   0x0(%rax,%rax,1)
  400646:	66 2e 0f 1f 84 00 00 	nopw   %cs:0x0(%rax,%rax,1)
  40064d:	00 00 00 

0000000000400650 <__do_global_dtors_aux>:
  400650:	80 3d d1 04 20 00 00 	cmpb   $0x0,0x2004d1(%rip)        # 600b28 <__TMC_END__>
  400657:	75 17                	jne    400670 <__do_global_dtors_aux+0x20>
  400659:	55                   	push   %rbp
  40065a:	48 89 e5             	mov    %rsp,%rbp
  40065d:	e8 7e ff ff ff       	callq  4005e0 <deregister_tm_clones>
  400662:	c6 05 bf 04 20 00 01 	movb   $0x1,0x2004bf(%rip)        # 600b28 <__TMC_END__>
  400669:	5d                   	pop    %rbp
  40066a:	c3                   	retq   
  40066b:	0f 1f 44 00 00       	nopl   0x0(%rax,%rax,1)
  400670:	c3                   	retq   
  400671:	0f 1f 44 00 00       	nopl   0x0(%rax,%rax,1)
  400676:	66 2e 0f 1f 84 00 00 	nopw   %cs:0x0(%rax,%rax,1)
  40067d:	00 00 00 

0000000000400680 <frame_dummy>:
  400680:	eb 8e                	jmp    400610 <register_tm_clones>
  400682:	66 90                	xchg   %ax,%ax

0000000000400684 <main>:
  400684:	55                   	push   %rbp
  400685:	48 89 e5             	mov    %rsp,%rbp
  400688:	48 83 ec 20          	sub    $0x20,%rsp
  40068c:	b8 a0 0f 00 00       	mov    $0xfa0,%eax
  400691:	48 89 c7             	mov    %rax,%rdi
  400694:	e8 d7 fe ff ff       	callq  400570 <_Znam@plt>
  400699:	48 89 45 e0          	mov    %rax,-0x20(%rbp)
  40069d:	48 8b 45 e0          	mov    -0x20(%rbp),%rax
  4006a1:	48 89 45 e8          	mov    %rax,-0x18(%rbp)
  4006a5:	48 8b 45 e8          	mov    -0x18(%rbp),%rax
  4006a9:	48 89 45 f0          	mov    %rax,-0x10(%rbp)
  4006ad:	48 8b 45 f0          	mov    -0x10(%rbp),%rax
  4006b1:	48 89 45 f8          	mov    %rax,-0x8(%rbp)
  4006b5:	48 8b 45 f0          	mov    -0x10(%rbp),%rax
  4006b9:	48 85 c0             	test   %rax,%rax
  4006bc:	74 14                	je     4006d2 <main+0x4e>
  4006be:	48 8b 45 f8          	mov    -0x8(%rbp),%rax
  4006c2:	ba 04 00 00 00       	mov    $0x4,%edx
  4006c7:	48 89 c7             	mov    %rax,%rdi
  4006ca:	48 89 d6             	mov    %rdx,%rsi
  4006cd:	e8 8e fe ff ff       	callq  400560 <_ZdaPvm@plt>
  4006d2:	b8 00 00 00 00       	mov    $0x0,%eax
  4006d7:	c9                   	leaveq 
  4006d8:	c3                   	retq   
  4006d9:	90                   	nop
  4006da:	90                   	nop
  4006db:	90                   	nop
  4006dc:	0f 1f 40 00          	nopl   0x0(%rax)

00000000004006e0 <__libc_csu_init>:
  4006e0:	41 57                	push   %r15
  4006e2:	41 56                	push   %r14
  4006e4:	41 89 ff             	mov    %edi,%r15d
  4006e7:	41 55                	push   %r13
  4006e9:	41 54                	push   %r12
  4006eb:	4c 8d 25 c6 01 20 00 	lea    0x2001c6(%rip),%r12        # 6008b8 <__frame_dummy_init_array_entry>
  4006f2:	55                   	push   %rbp
  4006f3:	48 8d 2d c6 01 20 00 	lea    0x2001c6(%rip),%rbp        # 6008c0 <__init_array_end>
  4006fa:	53                   	push   %rbx
  4006fb:	49 89 f6             	mov    %rsi,%r14
  4006fe:	49 89 d5             	mov    %rdx,%r13
  400701:	4c 29 e5             	sub    %r12,%rbp
  400704:	48 83 ec 08          	sub    $0x8,%rsp
  400708:	48 c1 fd 03          	sar    $0x3,%rbp
  40070c:	e8 17 fe ff ff       	callq  400528 <_init>
  400711:	48 85 ed             	test   %rbp,%rbp
  400714:	74 20                	je     400736 <__libc_csu_init+0x56>
  400716:	31 db                	xor    %ebx,%ebx
  400718:	0f 1f 84 00 00 00 00 	nopl   0x0(%rax,%rax,1)
  40071f:	00 
  400720:	4c 89 ea             	mov    %r13,%rdx
  400723:	4c 89 f6             	mov    %r14,%rsi
  400726:	44 89 ff             	mov    %r15d,%edi
  400729:	41 ff 14 dc          	callq  *(%r12,%rbx,8)
  40072d:	48 83 c3 01          	add    $0x1,%rbx
  400731:	48 39 eb             	cmp    %rbp,%rbx
  400734:	75 ea                	jne    400720 <__libc_csu_init+0x40>
  400736:	48 83 c4 08          	add    $0x8,%rsp
  40073a:	5b                   	pop    %rbx
  40073b:	5d                   	pop    %rbp
  40073c:	41 5c                	pop    %r12
  40073e:	41 5d                	pop    %r13
  400740:	41 5e                	pop    %r14
  400742:	41 5f                	pop    %r15
  400744:	c3                   	retq   
  400745:	90                   	nop
  400746:	66 2e 0f 1f 84 00 00 	nopw   %cs:0x0(%rax,%rax,1)
  40074d:	00 00 00 

0000000000400750 <__libc_csu_fini>:
  400750:	f3 c3                	repz retq 

Disassembly of section .fini:

0000000000400754 <_fini>:
  400754:	48 83 ec 08          	sub    $0x8,%rsp
  400758:	48 83 c4 08          	add    $0x8,%rsp
  40075c:	c3                   	retq   
